target datalayout = "e-m:e-p270:32:32-p271:32:32-p272:64:64-i64:64-i128:128-f80:128-n8:16:32:64-S128"
target triple = "x86_64-pc-linux-gnu"

%struct.dlist_node = type { ptr, ptr }
%struct.CachedPlanSource = type { i32, ptr, ptr, i32, ptr, i32, ptr, ptr, i32, i8, ptr, ptr, ptr, ptr, ptr, ptr, ptr, i32, i8, i8, ptr, i8, i8, i8, i8, i32, %struct.dlist_node, double, double, i64, i64 }

@CurrentMemoryContext = external global ptr, align 8
@.str = private unnamed_addr constant [17 x i8] c"CachedPlanSource\00", align 1
@.str.1 = private unnamed_addr constant [16 x i8] c"CachedPlanQuery\00", align 1
@.str.3 = private unnamed_addr constant [12 x i8] c"plancache.c\00", align 1
@.str.7 = private unnamed_addr constant [35 x i8] c"cannot copy a one-shot cached plan\00", align 1
@__func__.CopyCachedPlan = private unnamed_addr constant [15 x i8] c"CopyCachedPlan\00", align 1

; Function Attrs: inlinehint nounwind uwtable
define internal ptr @MemoryContextSwitchTo(ptr noundef %0) #3 {
  %2 = alloca ptr, align 8
  %3 = alloca ptr, align 8
  store ptr %0, ptr %2, align 8
  call void @llvm.lifetime.start.p0(i64 8, ptr %3) #8
  %4 = load ptr, ptr @CurrentMemoryContext, align 8
  store ptr %4, ptr %3, align 8
  %5 = load ptr, ptr %2, align 8
  store ptr %5, ptr @CurrentMemoryContext, align 8
  %6 = load ptr, ptr %3, align 8
  call void @llvm.lifetime.end.p0(i64 8, ptr %3) #8
  ret ptr %6
}

; Function Attrs: nounwind uwtable
define dso_local ptr @CopyCachedPlan(ptr noundef %0) #0 {
  %2 = alloca ptr, align 8
  %3 = alloca ptr, align 8
  %4 = alloca ptr, align 8
  %5 = alloca ptr, align 8
  %6 = alloca ptr, align 8
  %7 = alloca i32, align 4
  %8 = alloca i32, align 4
  store ptr %0, ptr %2, align 8
  call void @llvm.lifetime.start.p0(i64 8, ptr %3) #8
  call void @llvm.lifetime.start.p0(i64 8, ptr %4) #8
  call void @llvm.lifetime.start.p0(i64 8, ptr %5) #8
  call void @llvm.lifetime.start.p0(i64 8, ptr %6) #8
  %9 = load ptr, ptr %2, align 8
  %10 = getelementptr inbounds nuw %struct.CachedPlanSource, ptr %9, i32 0, i32 21
  %11 = load i8, ptr %10, align 8, !range !4, !noundef !5
  %12 = trunc i8 %11 to i1
  br i1 %12, label %13, label %24

13:                                               ; preds = %1
  br label %14

14:                                               ; preds = %13
  br i1 true, label %15, label %17

15:                                               ; preds = %14
  %16 = call zeroext i1 @errstart_cold(i32 noundef 21, ptr noundef null) #9
  br i1 %16, label %19, label %21

17:                                               ; preds = %14
  %18 = call zeroext i1 @errstart(i32 noundef 21, ptr noundef null)
  br i1 %18, label %19, label %21

19:                                               ; preds = %17, %15
  %20 = call i32 (ptr, ...) @errmsg_internal(ptr noundef @.str.7)
  call void @errfinish(ptr noundef @.str.3, i32 noundef 1551, ptr noundef @__func__.CopyCachedPlan)
  br label %21

21:                                               ; preds = %19, %17, %15
  unreachable

22:                                               ; No predecessors!
  br label %23

23:                                               ; preds = %22
  br label %24

24:                                               ; preds = %23, %1
  br label %25

25:                                               ; preds = %24
  br label %26

26:                                               ; preds = %25
  br label %27

27:                                               ; preds = %26
  store i32 1, ptr %7, align 4
  %28 = load ptr, ptr @CurrentMemoryContext, align 8
  %29 = call ptr @AllocSetContextCreateInternal(ptr noundef %28, ptr noundef @.str, i64 noundef 0, i64 noundef 1024, i64 noundef 8388608)
  store ptr %29, ptr %4, align 8
  %30 = load ptr, ptr %4, align 8
  %31 = call ptr @MemoryContextSwitchTo(ptr noundef %30)
  store ptr %31, ptr %6, align 8
  %32 = call ptr @palloc0(i64 noundef 200)
  store ptr %32, ptr %3, align 8
  %33 = load ptr, ptr %3, align 8
  %34 = getelementptr inbounds nuw %struct.CachedPlanSource, ptr %33, i32 0, i32 0
  store i32 195726186, ptr %34, align 8
  %35 = load ptr, ptr %2, align 8
  %36 = getelementptr inbounds nuw %struct.CachedPlanSource, ptr %35, i32 0, i32 1
  %37 = load ptr, ptr %36, align 8
  %38 = call ptr @copyObjectImpl(ptr noundef %37)
  %39 = load ptr, ptr %3, align 8
  %40 = getelementptr inbounds nuw %struct.CachedPlanSource, ptr %39, i32 0, i32 1
  store ptr %38, ptr %40, align 8
  %41 = load ptr, ptr %2, align 8
  %42 = getelementptr inbounds nuw %struct.CachedPlanSource, ptr %41, i32 0, i32 2
  %43 = load ptr, ptr %42, align 8
  %44 = call ptr @pstrdup(ptr noundef %43)
  %45 = load ptr, ptr %3, align 8
  %46 = getelementptr inbounds nuw %struct.CachedPlanSource, ptr %45, i32 0, i32 2
  store ptr %44, ptr %46, align 8
  %47 = load ptr, ptr %4, align 8
  %48 = load ptr, ptr %3, align 8
  %49 = getelementptr inbounds nuw %struct.CachedPlanSource, ptr %48, i32 0, i32 2
  %50 = load ptr, ptr %49, align 8
  call void @MemoryContextSetIdentifier(ptr noundef %47, ptr noundef %50)
  %51 = load ptr, ptr %2, align 8
  %52 = getelementptr inbounds nuw %struct.CachedPlanSource, ptr %51, i32 0, i32 3
  %53 = load i32, ptr %52, align 8
  %54 = load ptr, ptr %3, align 8
  %55 = getelementptr inbounds nuw %struct.CachedPlanSource, ptr %54, i32 0, i32 3
  store i32 %53, ptr %55, align 8
  %56 = load ptr, ptr %2, align 8
  %57 = getelementptr inbounds nuw %struct.CachedPlanSource, ptr %56, i32 0, i32 5
  %58 = load i32, ptr %57, align 8
  %59 = icmp sgt i32 %58, 0
  br i1 %59, label %60, label %80

60:                                               ; preds = %27
  %61 = load ptr, ptr %2, align 8
  %62 = getelementptr inbounds nuw %struct.CachedPlanSource, ptr %61, i32 0, i32 5
  %63 = load i32, ptr %62, align 8
  %64 = sext i32 %63 to i64
  %65 = mul i64 %64, 4
  %66 = call ptr @palloc(i64 noundef %65)
  %67 = load ptr, ptr %3, align 8
  %68 = getelementptr inbounds nuw %struct.CachedPlanSource, ptr %67, i32 0, i32 4
  store ptr %66, ptr %68, align 8
  %69 = load ptr, ptr %3, align 8
  %70 = getelementptr inbounds nuw %struct.CachedPlanSource, ptr %69, i32 0, i32 4
  %71 = load ptr, ptr %70, align 8
  %72 = load ptr, ptr %2, align 8
  %73 = getelementptr inbounds nuw %struct.CachedPlanSource, ptr %72, i32 0, i32 4
  %74 = load ptr, ptr %73, align 8
  %75 = load ptr, ptr %2, align 8
  %76 = getelementptr inbounds nuw %struct.CachedPlanSource, ptr %75, i32 0, i32 5
  %77 = load i32, ptr %76, align 8
  %78 = sext i32 %77 to i64
  %79 = mul i64 %78, 4
  call void @llvm.memcpy.p0.p0.i64(ptr align 4 %71, ptr align 4 %74, i64 %79, i1 false)
  br label %83

80:                                               ; preds = %27
  %81 = load ptr, ptr %3, align 8
  %82 = getelementptr inbounds nuw %struct.CachedPlanSource, ptr %81, i32 0, i32 4
  store ptr null, ptr %82, align 8
  br label %83

83:                                               ; preds = %80, %60
  %84 = load ptr, ptr %2, align 8
  %85 = getelementptr inbounds nuw %struct.CachedPlanSource, ptr %84, i32 0, i32 5
  %86 = load i32, ptr %85, align 8
  %87 = load ptr, ptr %3, align 8
  %88 = getelementptr inbounds nuw %struct.CachedPlanSource, ptr %87, i32 0, i32 5
  store i32 %86, ptr %88, align 8
  %89 = load ptr, ptr %2, align 8
  %90 = getelementptr inbounds nuw %struct.CachedPlanSource, ptr %89, i32 0, i32 6
  %91 = load ptr, ptr %90, align 8
  %92 = load ptr, ptr %3, align 8
  %93 = getelementptr inbounds nuw %struct.CachedPlanSource, ptr %92, i32 0, i32 6
  store ptr %91, ptr %93, align 8
  %94 = load ptr, ptr %2, align 8
  %95 = getelementptr inbounds nuw %struct.CachedPlanSource, ptr %94, i32 0, i32 7
  %96 = load ptr, ptr %95, align 8
  %97 = load ptr, ptr %3, align 8
  %98 = getelementptr inbounds nuw %struct.CachedPlanSource, ptr %97, i32 0, i32 7
  store ptr %96, ptr %98, align 8
  %99 = load ptr, ptr %2, align 8
  %100 = getelementptr inbounds nuw %struct.CachedPlanSource, ptr %99, i32 0, i32 8
  %101 = load i32, ptr %100, align 8
  %102 = load ptr, ptr %3, align 8
  %103 = getelementptr inbounds nuw %struct.CachedPlanSource, ptr %102, i32 0, i32 8
  store i32 %101, ptr %103, align 8
  %104 = load ptr, ptr %2, align 8
  %105 = getelementptr inbounds nuw %struct.CachedPlanSource, ptr %104, i32 0, i32 9
  %106 = load i8, ptr %105, align 4, !range !4, !noundef !5
  %107 = trunc i8 %106 to i1
  %108 = load ptr, ptr %3, align 8
  %109 = getelementptr inbounds nuw %struct.CachedPlanSource, ptr %108, i32 0, i32 9
  %110 = zext i1 %107 to i8
  store i8 %110, ptr %109, align 4
  %111 = load ptr, ptr %2, align 8
  %112 = getelementptr inbounds nuw %struct.CachedPlanSource, ptr %111, i32 0, i32 10
  %113 = load ptr, ptr %112, align 8
  %114 = icmp ne ptr %113, null
  br i1 %114, label %115, label %122

115:                                              ; preds = %83
  %116 = load ptr, ptr %2, align 8
  %117 = getelementptr inbounds nuw %struct.CachedPlanSource, ptr %116, i32 0, i32 10
  %118 = load ptr, ptr %117, align 8
  %119 = call ptr @CreateTupleDescCopy(ptr noundef %118)
  %120 = load ptr, ptr %3, align 8
  %121 = getelementptr inbounds nuw %struct.CachedPlanSource, ptr %120, i32 0, i32 10
  store ptr %119, ptr %121, align 8
  br label %125

122:                                              ; preds = %83
  %123 = load ptr, ptr %3, align 8
  %124 = getelementptr inbounds nuw %struct.CachedPlanSource, ptr %123, i32 0, i32 10
  store ptr null, ptr %124, align 8
  br label %125

125:                                              ; preds = %122, %115
  %126 = load ptr, ptr %4, align 8
  %127 = load ptr, ptr %3, align 8
  %128 = getelementptr inbounds nuw %struct.CachedPlanSource, ptr %127, i32 0, i32 11
  store ptr %126, ptr %128, align 8
  br label %129

129:                                              ; preds = %125
  br label %130

130:                                              ; preds = %129
  br label %131

131:                                              ; preds = %130
  store i32 1, ptr %8, align 4
  %132 = load ptr, ptr %4, align 8
  %133 = call ptr @AllocSetContextCreateInternal(ptr noundef %132, ptr noundef @.str.1, i64 noundef 0, i64 noundef 1024, i64 noundef 8388608)
  store ptr %133, ptr %5, align 8
  %134 = load ptr, ptr %5, align 8
  %135 = call ptr @MemoryContextSwitchTo(ptr noundef %134)
  %136 = load ptr, ptr %2, align 8
  %137 = getelementptr inbounds nuw %struct.CachedPlanSource, ptr %136, i32 0, i32 12
  %138 = load ptr, ptr %137, align 8
  %139 = call ptr @copyObjectImpl(ptr noundef %138)
  %140 = load ptr, ptr %3, align 8
  %141 = getelementptr inbounds nuw %struct.CachedPlanSource, ptr %140, i32 0, i32 12
  store ptr %139, ptr %141, align 8
  %142 = load ptr, ptr %2, align 8
  %143 = getelementptr inbounds nuw %struct.CachedPlanSource, ptr %142, i32 0, i32 13
  %144 = load ptr, ptr %143, align 8
  %145 = call ptr @copyObjectImpl(ptr noundef %144)
  %146 = load ptr, ptr %3, align 8
  %147 = getelementptr inbounds nuw %struct.CachedPlanSource, ptr %146, i32 0, i32 13
  store ptr %145, ptr %147, align 8
  %148 = load ptr, ptr %2, align 8
  %149 = getelementptr inbounds nuw %struct.CachedPlanSource, ptr %148, i32 0, i32 14
  %150 = load ptr, ptr %149, align 8
  %151 = call ptr @copyObjectImpl(ptr noundef %150)
  %152 = load ptr, ptr %3, align 8
  %153 = getelementptr inbounds nuw %struct.CachedPlanSource, ptr %152, i32 0, i32 14
  store ptr %151, ptr %153, align 8
  %154 = load ptr, ptr %2, align 8
  %155 = getelementptr inbounds nuw %struct.CachedPlanSource, ptr %154, i32 0, i32 15
  %156 = load ptr, ptr %155, align 8
  %157 = icmp ne ptr %156, null
  br i1 %157, label %158, label %165

158:                                              ; preds = %131
  %159 = load ptr, ptr %2, align 8
  %160 = getelementptr inbounds nuw %struct.CachedPlanSource, ptr %159, i32 0, i32 15
  %161 = load ptr, ptr %160, align 8
  %162 = call ptr @CopySearchPathMatcher(ptr noundef %161)
  %163 = load ptr, ptr %3, align 8
  %164 = getelementptr inbounds nuw %struct.CachedPlanSource, ptr %163, i32 0, i32 15
  store ptr %162, ptr %164, align 8
  br label %165

165:                                              ; preds = %158, %131
  %166 = load ptr, ptr %5, align 8
  %167 = load ptr, ptr %3, align 8
  %168 = getelementptr inbounds nuw %struct.CachedPlanSource, ptr %167, i32 0, i32 16
  store ptr %166, ptr %168, align 8
  %169 = load ptr, ptr %2, align 8
  %170 = getelementptr inbounds nuw %struct.CachedPlanSource, ptr %169, i32 0, i32 17
  %171 = load i32, ptr %170, align 8
  %172 = load ptr, ptr %3, align 8
  %173 = getelementptr inbounds nuw %struct.CachedPlanSource, ptr %172, i32 0, i32 17
  store i32 %171, ptr %173, align 8
  %174 = load ptr, ptr %2, align 8
  %175 = getelementptr inbounds nuw %struct.CachedPlanSource, ptr %174, i32 0, i32 18
  %176 = load i8, ptr %175, align 4, !range !4, !noundef !5
  %177 = trunc i8 %176 to i1
  %178 = load ptr, ptr %3, align 8
  %179 = getelementptr inbounds nuw %struct.CachedPlanSource, ptr %178, i32 0, i32 18
  %180 = zext i1 %177 to i8
  store i8 %180, ptr %179, align 4
  %181 = load ptr, ptr %2, align 8
  %182 = getelementptr inbounds nuw %struct.CachedPlanSource, ptr %181, i32 0, i32 19
  %183 = load i8, ptr %182, align 1, !range !4, !noundef !5
  %184 = trunc i8 %183 to i1
  %185 = load ptr, ptr %3, align 8
  %186 = getelementptr inbounds nuw %struct.CachedPlanSource, ptr %185, i32 0, i32 19
  %187 = zext i1 %184 to i8
  store i8 %187, ptr %186, align 1
  %188 = load ptr, ptr %3, align 8
  %189 = getelementptr inbounds nuw %struct.CachedPlanSource, ptr %188, i32 0, i32 20
  store ptr null, ptr %189, align 8
  %190 = load ptr, ptr %3, align 8
  %191 = getelementptr inbounds nuw %struct.CachedPlanSource, ptr %190, i32 0, i32 21
  store i8 0, ptr %191, align 8
  %192 = load ptr, ptr %3, align 8
  %193 = getelementptr inbounds nuw %struct.CachedPlanSource, ptr %192, i32 0, i32 22
  store i8 1, ptr %193, align 1
  %194 = load ptr, ptr %3, align 8
  %195 = getelementptr inbounds nuw %struct.CachedPlanSource, ptr %194, i32 0, i32 23
  store i8 0, ptr %195, align 2
  %196 = load ptr, ptr %2, align 8
  %197 = getelementptr inbounds nuw %struct.CachedPlanSource, ptr %196, i32 0, i32 24
  %198 = load i8, ptr %197, align 1, !range !4, !noundef !5
  %199 = trunc i8 %198 to i1
  %200 = load ptr, ptr %3, align 8
  %201 = getelementptr inbounds nuw %struct.CachedPlanSource, ptr %200, i32 0, i32 24
  %202 = zext i1 %199 to i8
  store i8 %202, ptr %201, align 1
  %203 = load ptr, ptr %2, align 8
  %204 = getelementptr inbounds nuw %struct.CachedPlanSource, ptr %203, i32 0, i32 25
  %205 = load i32, ptr %204, align 4
  %206 = load ptr, ptr %3, align 8
  %207 = getelementptr inbounds nuw %struct.CachedPlanSource, ptr %206, i32 0, i32 25
  store i32 %205, ptr %207, align 4
  %208 = load ptr, ptr %2, align 8
  %209 = getelementptr inbounds nuw %struct.CachedPlanSource, ptr %208, i32 0, i32 27
  %210 = load double, ptr %209, align 8
  %211 = load ptr, ptr %3, align 8
  %212 = getelementptr inbounds nuw %struct.CachedPlanSource, ptr %211, i32 0, i32 27
  store double %210, ptr %212, align 8
  %213 = load ptr, ptr %2, align 8
  %214 = getelementptr inbounds nuw %struct.CachedPlanSource, ptr %213, i32 0, i32 28
  %215 = load double, ptr %214, align 8
  %216 = load ptr, ptr %3, align 8
  %217 = getelementptr inbounds nuw %struct.CachedPlanSource, ptr %216, i32 0, i32 28
  store double %215, ptr %217, align 8
  %218 = load ptr, ptr %2, align 8
  %219 = getelementptr inbounds nuw %struct.CachedPlanSource, ptr %218, i32 0, i32 30
  %220 = load i64, ptr %219, align 8
  %221 = load ptr, ptr %3, align 8
  %222 = getelementptr inbounds nuw %struct.CachedPlanSource, ptr %221, i32 0, i32 30
  store i64 %220, ptr %222, align 8
  %223 = load ptr, ptr %2, align 8
  %224 = getelementptr inbounds nuw %struct.CachedPlanSource, ptr %223, i32 0, i32 29
  %225 = load i64, ptr %224, align 8
  %226 = load ptr, ptr %3, align 8
  %227 = getelementptr inbounds nuw %struct.CachedPlanSource, ptr %226, i32 0, i32 29
  store i64 %225, ptr %227, align 8
  %228 = load ptr, ptr %6, align 8
  %229 = call ptr @MemoryContextSwitchTo(ptr noundef %228)
  %230 = load ptr, ptr %3, align 8
  call void @llvm.lifetime.end.p0(i64 8, ptr %6) #8
  call void @llvm.lifetime.end.p0(i64 8, ptr %5) #8
  call void @llvm.lifetime.end.p0(i64 8, ptr %4) #8
  call void @llvm.lifetime.end.p0(i64 8, ptr %3) #8
  ret ptr %230
}