; Function Attrs: nounwind uwtable
define dso_local noundef ptr @CopyCachedPlan(ptr noundef readonly captures(none) %0) local_unnamed_addr #0 {
  %2 = getelementptr inbounds nuw i8, ptr %0, i64 144
  %3 = load i8, ptr %2, align 8, !range !4, !noundef !5
  %4 = trunc nuw i8 %3 to i1
  br i1 %4, label %5, label %8

5:                                                ; preds = %1
  %6 = tail call zeroext i1 @errstart_cold(i32 noundef 21, ptr noundef null) #10
  tail call void @llvm.assume(i1 %6)
  %7 = tail call i32 (ptr, ...) @errmsg_internal(ptr noundef nonnull @.str.7) #9
  tail call void @errfinish(ptr noundef nonnull @.str.3, i32 noundef 1551, ptr noundef nonnull @__func__.CopyCachedPlan) #9
  unreachable

8:                                                ; preds = %1
  %9 = load ptr, ptr @CurrentMemoryContext, align 8
  %10 = tail call ptr @AllocSetContextCreateInternal(ptr noundef %9, ptr noundef nonnull @.str, i64 noundef 0, i64 noundef 1024, i64 noundef 8388608) #9
  %11 = load ptr, ptr @CurrentMemoryContext, align 8
  store ptr %10, ptr @CurrentMemoryContext, align 8
  %12 = tail call ptr @palloc0(i64 noundef 200) #9
  store i32 195726186, ptr %12, align 8
  %13 = getelementptr inbounds nuw i8, ptr %0, i64 8
  %14 = load ptr, ptr %13, align 8
  %15 = tail call ptr @copyObjectImpl(ptr noundef %14) #9
  %16 = getelementptr inbounds nuw i8, ptr %12, i64 8
  store ptr %15, ptr %16, align 8
  %17 = getelementptr inbounds nuw i8, ptr %0, i64 16
  %18 = load ptr, ptr %17, align 8
  %19 = tail call ptr @pstrdup(ptr noundef %18) #9
  %20 = getelementptr inbounds nuw i8, ptr %12, i64 16
  store ptr %19, ptr %20, align 8
  tail call void @MemoryContextSetIdentifier(ptr noundef %10, ptr noundef %19) #9
  %21 = getelementptr inbounds nuw i8, ptr %0, i64 24
  %22 = load i32, ptr %21, align 8
  %23 = getelementptr inbounds nuw i8, ptr %12, i64 24
  store i32 %22, ptr %23, align 8
  %24 = getelementptr inbounds nuw i8, ptr %0, i64 40
  %25 = load i32, ptr %24, align 8
  %26 = icmp sgt i32 %25, 0
  br i1 %26, label %27, label %37

27:                                               ; preds = %8
  %28 = zext nneg i32 %25 to i64
  %29 = shl nuw nsw i64 %28, 2
  %30 = tail call ptr @palloc(i64 noundef %29) #9
  %31 = getelementptr inbounds nuw i8, ptr %12, i64 32
  store ptr %30, ptr %31, align 8
  %32 = getelementptr inbounds nuw i8, ptr %0, i64 32
  %33 = load ptr, ptr %32, align 8
  %34 = load i32, ptr %24, align 8
  %35 = sext i32 %34 to i64
  %36 = shl nsw i64 %35, 2
  tail call void @llvm.memcpy.p0.p0.i64(ptr align 4 %30, ptr align 4 %33, i64 %36, i1 false)
  br label %39

37:                                               ; preds = %8
  %38 = getelementptr inbounds nuw i8, ptr %12, i64 32
  store ptr null, ptr %38, align 8
  br label %39

39:                                               ; preds = %37, %27
  %40 = load i32, ptr %24, align 8
  %41 = getelementptr inbounds nuw i8, ptr %12, i64 40
  store i32 %40, ptr %41, align 8
  %42 = getelementptr inbounds nuw i8, ptr %0, i64 48
  %43 = load ptr, ptr %42, align 8
  %44 = getelementptr inbounds nuw i8, ptr %12, i64 48
  store ptr %43, ptr %44, align 8
  %45 = getelementptr inbounds nuw i8, ptr %0, i64 56
  %46 = load ptr, ptr %45, align 8
  %47 = getelementptr inbounds nuw i8, ptr %12, i64 56
  store ptr %46, ptr %47, align 8
  %48 = getelementptr inbounds nuw i8, ptr %0, i64 64
  %49 = load i32, ptr %48, align 8
  %50 = getelementptr inbounds nuw i8, ptr %12, i64 64
  store i32 %49, ptr %50, align 8
  %51 = getelementptr inbounds nuw i8, ptr %0, i64 68
  %52 = load i8, ptr %51, align 4, !range !4, !noundef !5
  %53 = getelementptr inbounds nuw i8, ptr %12, i64 68
  store i8 %52, ptr %53, align 4
  %54 = getelementptr inbounds nuw i8, ptr %0, i64 72
  %55 = load ptr, ptr %54, align 8
  %.not = icmp eq ptr %55, null
  br i1 %.not, label %58, label %56

56:                                               ; preds = %39
  %57 = tail call ptr @CreateTupleDescCopy(ptr noundef nonnull %55) #9
  br label %58

58:                                               ; preds = %39, %56
  %.sink = phi ptr [ %57, %56 ], [ null, %39 ]
  %59 = getelementptr inbounds nuw i8, ptr %12, i64 72
  store ptr %.sink, ptr %59, align 8
  %60 = getelementptr inbounds nuw i8, ptr %12, i64 80
  store ptr %10, ptr %60, align 8
  %61 = tail call ptr @AllocSetContextCreateInternal(ptr noundef %10, ptr noundef nonnull @.str.1, i64 noundef 0, i64 noundef 1024, i64 noundef 8388608) #9
  store ptr %61, ptr @CurrentMemoryContext, align 8
  %62 = getelementptr inbounds nuw i8, ptr %0, i64 88
  %63 = load ptr, ptr %62, align 8
  %64 = tail call ptr @copyObjectImpl(ptr noundef %63) #9
  %65 = getelementptr inbounds nuw i8, ptr %12, i64 88
  store ptr %64, ptr %65, align 8
  %66 = getelementptr inbounds nuw i8, ptr %0, i64 96
  %67 = load ptr, ptr %66, align 8
  %68 = tail call ptr @copyObjectImpl(ptr noundef %67) #9
  %69 = getelementptr inbounds nuw i8, ptr %12, i64 96
  store ptr %68, ptr %69, align 8
  %70 = getelementptr inbounds nuw i8, ptr %0, i64 104
  %71 = load ptr, ptr %70, align 8
  %72 = tail call ptr @copyObjectImpl(ptr noundef %71) #9
  %73 = getelementptr inbounds nuw i8, ptr %12, i64 104
  store ptr %72, ptr %73, align 8
  %74 = getelementptr inbounds nuw i8, ptr %0, i64 112
  %75 = load ptr, ptr %74, align 8
  %.not73 = icmp eq ptr %75, null
  br i1 %.not73, label %79, label %76

76:                                               ; preds = %58
  %77 = tail call ptr @CopySearchPathMatcher(ptr noundef nonnull %75) #9
  %78 = getelementptr inbounds nuw i8, ptr %12, i64 112
  store ptr %77, ptr %78, align 8
  br label %79

79:                                               ; preds = %76, %58
  %80 = getelementptr inbounds nuw i8, ptr %12, i64 120
  store ptr %61, ptr %80, align 8
  %81 = getelementptr inbounds nuw i8, ptr %0, i64 128
  %82 = load i32, ptr %81, align 8
  %83 = getelementptr inbounds nuw i8, ptr %12, i64 128
  store i32 %82, ptr %83, align 8
  %84 = getelementptr inbounds nuw i8, ptr %0, i64 132
  %85 = load i8, ptr %84, align 4, !range !4, !noundef !5
  %86 = getelementptr inbounds nuw i8, ptr %12, i64 132
  store i8 %85, ptr %86, align 4
  %87 = getelementptr inbounds nuw i8, ptr %0, i64 133
  %88 = load i8, ptr %87, align 1, !range !4, !noundef !5
  %89 = getelementptr inbounds nuw i8, ptr %12, i64 133
  store i8 %88, ptr %89, align 1
  %90 = getelementptr inbounds nuw i8, ptr %12, i64 136
  store ptr null, ptr %90, align 8
  %91 = getelementptr inbounds nuw i8, ptr %12, i64 144
  store i8 0, ptr %91, align 8
  %92 = getelementptr inbounds nuw i8, ptr %12, i64 145
  store i8 1, ptr %92, align 1
  %93 = getelementptr inbounds nuw i8, ptr %12, i64 146
  store i8 0, ptr %93, align 2
  %94 = getelementptr inbounds nuw i8, ptr %0, i64 147
  %95 = load i8, ptr %94, align 1, !range !4, !noundef !5
  %96 = getelementptr inbounds nuw i8, ptr %12, i64 147
  store i8 %95, ptr %96, align 1
  %97 = getelementptr inbounds nuw i8, ptr %0, i64 148
  %98 = load i32, ptr %97, align 4
  %99 = getelementptr inbounds nuw i8, ptr %12, i64 148
  store i32 %98, ptr %99, align 4
  %100 = getelementptr inbounds nuw i8, ptr %0, i64 168
  %101 = load double, ptr %100, align 8
  %102 = getelementptr inbounds nuw i8, ptr %12, i64 168
  store double %101, ptr %102, align 8
  %103 = getelementptr inbounds nuw i8, ptr %0, i64 176
  %104 = load double, ptr %103, align 8
  %105 = getelementptr inbounds nuw i8, ptr %12, i64 176
  store double %104, ptr %105, align 8
  %106 = getelementptr inbounds nuw i8, ptr %0, i64 192
  %107 = load i64, ptr %106, align 8
  %108 = getelementptr inbounds nuw i8, ptr %12, i64 192
  store i64 %107, ptr %108, align 8
  %109 = getelementptr inbounds nuw i8, ptr %0, i64 184
  %110 = load i64, ptr %109, align 8
  %111 = getelementptr inbounds nuw i8, ptr %12, i64 184
  store i64 %110, ptr %111, align 8
  store ptr %11, ptr @CurrentMemoryContext, align 8
  ret ptr %12
}